; Function Attrs: nounwind uwtable
define void @Cof_ManPrintHighFanout(ptr noundef captures(none) %0, i32 noundef %1) local_unnamed_addr #0 {
  %3 = tail call ptr @Cof_ManCollectHighFanout(ptr noundef %0, i32 noundef %1)
  %4 = getelementptr i8, ptr %3, i64 4
  %.val = load i32, ptr %4, align 4, !tbaa !64
  %5 = icmp sgt i32 %.val, 0
  %6 = getelementptr i8, ptr %3, i64 8
  %.val9 = load ptr, ptr %6, align 8, !tbaa !67
  br i1 %5, label %.lr.ph, label %.critedge

.lr.ph:                                           ; preds = %2
  %wide.trip.count = zext nneg i32 %.val to i64
  br label %7

7:                                                ; preds = %.lr.ph, %7
  %indvars.iv = phi i64 [ 0, %.lr.ph ], [ %indvars.iv.next, %7 ]
  %8 = getelementptr inbounds nuw ptr, ptr %.val9, i64 %indvars.iv
  %9 = load ptr, ptr %8, align 8, !tbaa !68
  tail call void @Cof_ManPrintHighFanoutOne(ptr noundef %0, ptr noundef %9)
  %indvars.iv.next = add nuw nsw i64 %indvars.iv, 1
  %exitcond.not = icmp eq i64 %indvars.iv.next, %wide.trip.count
  br i1 %exitcond.not, label %.critedge.thread, label %7, !llvm.loop !77

.critedge:                                        ; preds = %2
  %.not.i = icmp eq ptr %.val9, null
  br i1 %.not.i, label %Vec_PtrFree.exit, label %.critedge.thread

.critedge.thread:                                 ; preds = %7, %.critedge
  tail call void @free(ptr noundef nonnull %.val9) #27
  br label %Vec_PtrFree.exit

Vec_PtrFree.exit:                                 ; preds = %.critedge, %.critedge.thread
  tail call void @free(ptr noundef nonnull %3) #27
  ret void
}